(lp0
(lp1
(VSay_Hi
p2
(dp3
S''
p4
tp5
a(g2
(dp6
S'good-bad'
p7
(lp8
sS'human_ready'
p9
tp10
a(VExplain
p11
(dp12
g4
tp13
a(g11
(dp14
g7
(lp15
sg9
tp16
a(VGet
p17
(dp18
g4
tp19
a(g17
(dp20
g7
(lp21
sS'human_ignore'
p22
tp23
a(VSay_Bye
p24
(dp25
g4
tp26
a(g24
(dp27
g7
(lp28
sg9
tp29
aF1.0
aI00
aI00
acdatetime
date
p30
(S'\x07\xe3\x01\r'
p31
tp32
Rp33
aF1547393676.073697
aF1547393728.303455
aa(lp34
(VGreet
p35
(dp36
g4
tp37
a(g35
(dp38
S'good-bad'
p39
(lp40
sS'human_ignore'
p41
tp42
a(g35
(dp43
g4
tp44
a(g35
(dp45
g39
(lp46
sS'human_ready'
p47
tp48
a(VBye
p49
(dp50
g4
tp51
a(g49
(dp52
g39
(lp53
sg41
tp54
aF-1.0
aI00
aI00
ag30
(S'\x07\xe3\x01\x11'
p55
tp56
Rp57
aF1547776065.412218
aF1547776096.065282
aa(lp58
(VGreet
p59
(dp60
g4
tp61
a(g59
(dp62
S'good-bad'
p63
(lp64
sS'human_ready'
p65
tp66
a(VBye
p67
(dp68
g4
tp69
a(g67
(dp70
g63
(lp71
sg65
tp72
aF-1.0
aI00
aI00
ag30
(S'\x07\xe3\x01\x11'
p73
tp74
Rp75
aF1547780485.138093
aF1547780499.865761
aa(lp76
(VGreet
p77
(dp78
g4
tp79
a(g77
(dp80
S'good-bad'
p81
(lp82
sS'human_ready'
p83
tp84
a(VBye
p85
(dp86
g4
tp87
a(g85
(dp88
g81
(lp89
sg83
tp90
aF-1.0
aI00
aI00
ag30
(S'\x07\xe3\x01\x11'
p91
tp92
Rp93
aF1547780848.767474
aF1547780862.717791
aa(lp94
(VGreet
p95
(dp96
g4
tp97
a(g95
(dp98
S'good-bad'
p99
(lp100
sS'human_ready'
p101
tp102
a(VHowHelp
p103
(dp104
g4
tp105
a(g103
(dp106
g99
(lp107
sg101
tp108
a(VDidNotGetThat
p109
(dp110
g4
tp111
a(g109
(dp112
g99
(lp113
sg101
tp114
a(g103
(dp115
g4
tp116
a(g103
(dp117
g99
(lp118
sg101
tp119
a(g109
(dp120
g4
tp121
a(g109
(dp122
g99
(lp123
sg101
tp124
a(g103
(dp125
g4
tp126
a(g103
(dp127
g99
(lp128
sg101
tp129
a(g109
(dp130
g4
tp131
a(g109
(dp132
g99
(lp133
sg101
tp134
a(g103
(dp135
g4
tp136
a(g103
(dp137
g99
(lp138
sg101
tp139
aF-1.0
aI01
aI00
ag30
(S'\x07\xe3\x01\x11'
p140
tp141
Rp142
aF1547780987.576196
aF1547781066.362215
aa(lp143
(VGreet
p144
(dp145
g4
tp146
a(g144
(dp147
S'good-bad'
p148
(lp149
sS'human_ready'
p150
tp151
a(VHowHelp
p152
(dp153
g4
tp154
a(g152
(dp155
g148
(lp156
sg150
tp157
a(g144
(dp158
g4
tp159
a(g144
(dp160
g148
(lp161
sg150
tp162
a(g152
(dp163
g4
tp164
a(g152
(dp165
g148
(lp166
sg150
tp167
a(g144
(dp168
g4
tp169
a(g144
(dp170
g148
(lp171
sg150
tp172
a(g152
(dp173
g4
tp174
a(g152
(dp175
g148
(lp176
sg150
tp177
a(g144
(dp178
g4
tp179
a(g144
(dp180
g148
(lp181
sS'human_ignore'
p182
tp183
aF-1.0
aI01
aI00
ag30
(S'\x07\xe3\x01\x12'
p184
tp185
Rp186
aF1547829435.911541
aF1547829501.719468
aa(lp187
(VGreet
p188
(dp189
g4
tp190
a(g188
(dp191
S'good-bad'
p192
(lp193
sS'human_ignore'
p194
tp195
a(g188
(dp196
g4
tp197
a(g188
(dp198
g192
(lp199
sg194
tp200
a(g188
(dp201
g4
tp202
a(g188
(dp203
g192
(lp204
sS'human_ready'
p205
tp206
a(VHowHelp
p207
(dp208
g4
tp209
a(g207
(dp210
g192
(lp211
sg205
tp212
a(VCompleteQuery
p213
(dp214
g4
tp215
a(g213
(dp216
g192
(lp217
sg205
tp218
aF-1.0
aI01
aI00
ag30
(S'\x07\xe3\x01\x12'
p219
tp220
Rp221
aF1547830553.443238
aF1547830614.335333
aa(lp222
(VGreet
p223
(dp224
g4
tp225
a(g223
(dp226
S'good-bad'
p227
(lp228
sS'human_ready'
p229
tp230
a(VHowHelp
p231
(dp232
g4
tp233
a(g231
(dp234
g227
(lp235
sg229
tp236
a(VBye
p237
(dp238
g4
tp239
a(g237
(dp240
g227
(lp241
sg229
tp242
aF0.0
aI00
aI00
ag30
(S'\x07\xe3\x01\x12'
p243
tp244
Rp245
aF1547831025.909156
aF1547831053.916528
aa(lp246
(VGreet
p247
(dp248
g4
tp249
a(g247
(dp250
S'good-bad'
p251
(lp252
sS'human_ignore'
p253
tp254
a(g247
(dp255
g4
tp256
a(g247
(dp257
g251
(lp258
sg253
tp259
a(g247
(dp260
g4
tp261
a(g247
(dp262
g251
(lp263
sg253
tp264
a(g247
(dp265
g4
tp266
a(g247
(dp267
g251
(lp268
sg253
tp269
a(g247
(dp270
g4
tp271
a(g247
(dp272
g251
(lp273
sg253
tp274
a(g247
(dp275
g4
tp276
a(g247
(dp277
g251
(lp278
sg253
tp279
aF0.0
aI01
aI00
ag30
(S'\x07\xe3\x01\x12'
p280
tp281
Rp282
aF1547835864.318292
aF1547835932.153571
aa(lp283
(VGreet
p284
(dp285
g4
tp286
a(g284
(dp287
S'good-bad'
p288
(lp289
sS'human_ready'
p290
tp291
a(VHowHelp
p292
(dp293
g4
tp294
a(g292
(dp295
g288
(lp296
sg290
tp297
a(VCompleteQuery
p298
(dp299
g4
tp300
a(g298
(dp301
g288
(lp302
sg290
tp303
a(VNeedMoreHelp
p304
(dp305
g4
tp306
a(g304
(dp307
g288
(lp308
sg290
tp309
a(g292
(dp310
g4
tp311
a(g292
(dp312
g288
(lp313
sg290
tp314
aF1.0
aI01
aI00
ag30
(S'\x07\xe3\x01\x12'
p315
tp316
Rp317
aF1547838269.899145
aF1547838330.137961
aa(lp318
(VGreet
p319
(dp320
g4
tp321
a(g319
(dp322
S'good-bad'
p323
(lp324
sS'human_ready'
p325
tp326
a(VHowHelp
p327
(dp328
g4
tp329
a(g327
(dp330
g323
(lp331
sg325
tp332
a(VCompleteQuery
p333
(dp334
g4
tp335
a(g333
(dp336
g323
(lp337
sg325
tp338
a(VNeedMoreHelp
p339
(dp340
g4
tp341
a(g339
(dp342
g323
(lp343
sg325
tp344
a(g327
(dp345
g4
tp346
a(g327
(dp347
g323
(lp348
sg325
tp349
a(g333
(dp350
g4
tp351
a(g333
(dp352
g323
(lp353
sg325
tp354
a(g339
(dp355
g4
tp356
a(g339
(dp357
g323
(lp358
sg325
tp359
aF0.0
aI01
aI00
ag30
(S'\x07\xe3\x01\x12'
p360
tp361
Rp362
aF1547838516.582184
aF1547838587.893006
aa(lp363
(VGreet
p364
(dp365
g4
tp366
a(g364
(dp367
S'good-bad'
p368
(lp369
sS'human_ready'
p370
tp371
a(VHowHelp
p372
(dp373
g4
tp374
a(g372
(dp375
g368
(lp376
sg370
tp377
a(VCompleteQuery
p378
(dp379
g4
tp380
a(g378
(dp381
g368
(lp382
sg370
tp383
a(VNeedMoreHelp
p384
(dp385
g4
tp386
a(g384
(dp387
g368
(lp388
sg370
tp389
a(g372
(dp390
g4
tp391
a(g372
(dp392
g368
(lp393
sg370
tp394
a(g378
(dp395
g4
tp396
a(g378
(dp397
g368
(lp398
sg370
tp399
a(g384
(dp400
g4
tp401
a(g384
(dp402
g368
(lp403
sg370
tp404
a(g372
(dp405
g4
tp406
a(g372
(dp407
g368
(lp408
sg370
tp409
aF-1.0
aI01
aI00
ag30
(S'\x07\xe3\x01\x12'
p410
tp411
Rp412
aF1547839181.790279
aF1547839242.430225
aa(lp413
(VGreet
p414
(dp415
g4
tp416
a(g414
(dp417
S'good-bad'
p418
(lp419
sS'human_ready'
p420
tp421
a(VHowHelp
p422
(dp423
g4
tp424
a(g422
(dp425
g418
(lp426
sg420
tp427
a(VCompleteQuery
p428
(dp429
g4
tp430
a(g428
(dp431
g418
(lp432
sg420
tp433
a(VNeedMoreHelp
p434
(dp435
g4
tp436
a(g434
(dp437
g418
(lp438
sg420
tp439
a(g422
(dp440
g4
tp441
a(g422
(dp442
g418
(lp443
sg420
tp444
a(g428
(dp445
g4
tp446
a(g428
(dp447
g418
(lp448
sg420
tp449
aF1.0
aI01
aI00
ag30
(S'\x07\xe3\x01\x12'
p450
tp451
Rp452
aF1547839734.606595
aF1547839795.145658
aa(lp453
(VGreet
p454
(dp455
g4
tp456
a(g454
(dp457
S'good-bad'
p458
(lp459
sS'human_ready'
p460
tp461
a(VHowHelp
p462
(dp463
g4
tp464
a(g462
(dp465
g458
(lp466
sg460
tp467
a(VCompleteQuery
p468
(dp469
g4
tp470
a(g468
(dp471
g458
(lp472
sg460
tp473
a(VNeedMoreHelp
p474
(dp475
g4
tp476
a(g474
(dp477
g458
(lp478
sg460
tp479
a(g462
(dp480
g4
tp481
a(g462
(dp482
g458
(lp483
sg460
tp484
a(g468
(dp485
g4
tp486
a(g468
(dp487
g458
(lp488
sg460
tp489
a(g474
(dp490
g4
tp491
a(g474
(dp492
g458
(lp493
sg460
tp494
aF1.0
aI01
aI00
ag30
(S'\x07\xe3\x01\x12'
p495
tp496
Rp497
aF1547840269.344199
aF1547840340.149751
aa(lp498
(VGreet
p499
(dp500
g4
tp501
a(g499
(dp502
S'good-bad'
p503
(lp504
sS'human_ready'
p505
tp506
a(VHowHelp
p507
(dp508
g4
tp509
a(g507
(dp510
g503
(lp511
sg505
tp512
a(VCompleteQuery
p513
(dp514
g4
tp515
a(g513
(dp516
g503
(lp517
sg505
tp518
a(VNeedMoreHelp
p519
(dp520
g4
tp521
a(g519
(dp522
g503
(lp523
sg505
tp524
a(g507
(dp525
g4
tp526
a(g507
(dp527
g503
(lp528
sg505
tp529
a(g513
(dp530
g4
tp531
a(g513
(dp532
g503
(lp533
sg505
tp534
a(g519
(dp535
g4
tp536
a(g519
(dp537
g503
(lp538
sg505
tp539
a(g507
(dp540
g4
tp541
a(g507
(dp542
g503
(lp543
sg505
tp544
aF-1.0
aI01
aI00
ag30
(S'\x07\xe3\x01\x12'
p545
tp546
Rp547
aF1547840543.363227
aF1547840609.429208
aa(lp548
(VGreet
p549
(dp550
g4
tp551
a(g549
(dp552
S'good-bad'
p553
(lp554
sS'human_ready'
p555
tp556
a(VHowHelp
p557
(dp558
g4
tp559
a(g557
(dp560
g553
(lp561
sg555
tp562
a(VCompleteQuery
p563
(dp564
g4
tp565
a(g563
(dp566
g553
(lp567
sg555
tp568
a(VNeedMoreHelp
p569
(dp570
g4
tp571
a(g569
(dp572
g553
(lp573
sg555
tp574
a(g557
(dp575
g4
tp576
a(g557
(dp577
g553
(lp578
sg555
tp579
a(g563
(dp580
g4
tp581
a(g563
(dp582
g553
(lp583
sg555
tp584
a(g569
(dp585
g4
tp586
a(g569
(dp587
g553
(lp588
sg555
tp589
aF0.0
aI01
aI00
ag30
(S'\x07\xe3\x01\x12'
p590
tp591
Rp592
aF1547840882.64988
aF1547840946.694052
aa(lp593
(g549
(dp594
g4
tp595
a(g549
(dp596
g553
(lp597
sg555
tp598
a(g557
(dp599
g4
tp600
a(g557
(dp601
g553
(lp602
sg555
tp603
a(g563
(dp604
g4
tp605
a(g563
(dp606
g553
(lp607
sg555
tp608
a(g569
(dp609
g4
tp610
a(g569
(dp611
g553
(lp612
sg555
tp613
a(g557
(dp614
g4
tp615
a(g557
(dp616
g553
(lp617
sg555
tp618
a(g563
(dp619
g4
tp620
a(g563
(dp621
g553
(lp622
sg555
tp623
a(g569
(dp624
g4
tp625
a(g569
(dp626
g553
(lp627
sg555
tp628
aF0.0
aI01
aI00
ag30
(S'\x07\xe3\x01\x12'
p629
tp630
Rp631
aF1547841146.199484
aF1547841211.894938
aa(lp632
(VGreet
p633
(dp634
g4
tp635
a(g633
(dp636
S'good-bad'
p637
(lp638
sS'human_ignore'
p639
tp640
a(g633
(dp641
g4
tp642
a(g633
(dp643
g637
(lp644
sS'human_ready'
p645
tp646
a(VHowHelp
p647
(dp648
g4
tp649
a(g647
(dp650
g637
(lp651
sg645
tp652
a(VCompleteQuery
p653
(dp654
g4
tp655
a(g653
(dp656
g637
(lp657
sg645
tp658
a(VNeedMoreHelp
p659
(dp660
g4
tp661
a(g659
(dp662
g637
(lp663
sg645
tp664
a(g647
(dp665
g4
tp666
a(g647
(dp667
g637
(lp668
sg645
tp669
a(g653
(dp670
g4
tp671
a(g653
(dp672
g637
(lp673
sg645
tp674
a(g659
(dp675
g4
tp676
a(g659
(dp677
g637
(lp678
sg645
tp679
aF-1.0
aI01
aI00
ag30
(S'\x07\xe3\x01\x12'
p680
tp681
Rp682
aF1547841458.183304
aF1547841526.093939
aa(lp683
(VGreet
p684
(dp685
g4
tp686
a(g684
(dp687
S'good-bad'
p688
(lp689
sS'human_ready'
p690
tp691
a(VHowHelp
p692
(dp693
g4
tp694
a(g692
(dp695
g688
(lp696
sg690
tp697
a(VCompleteQuery
p698
(dp699
g4
tp700
a(g698
(dp701
g688
(lp702
sg690
tp703
a(VNeedMoreHelp
p704
(dp705
g4
tp706
a(g704
(dp707
g688
(lp708
sS'human_ignore'
p709
tp710
a(VBye
p711
(dp712
g4
tp713
a(g711
(dp714
g688
(lp715
sg690
tp716
aF1.0
aI00
aI00
ag30
(S'\x07\xe3\x01\x12'
p717
tp718
Rp719
aF1547842907.050159
aF1547842936.901062
aa(lp720
(g684
(dp721
g4
tp722
a(g684
(dp723
g688
(lp724
sg690
tp725
a(g692
(dp726
g4
tp727
a(g692
(dp728
g688
(lp729
sg690
tp730
a(g698
(dp731
g4
tp732
a(g698
(dp733
g688
(lp734
sg690
tp735
a(g704
(dp736
g4
tp737
a(g704
(dp738
g688
(lp739
sg709
tp740
a(g711
(dp741
g4
tp742
a(g711
(dp743
g688
(lp744
sg690
tp745
aF-1.0
aI00
aI00
ag30
(S'\x07\xe3\x01\x12'
p746
tp747
Rp748
aF1547843131.840392
aF1547843170.820893
aa(lp749
(VGreet
p750
(dp751
g4
tp752
a(g750
(dp753
S'good-bad'
p754
(lp755
sS'human_ready'
p756
tp757
a(VHowHelp
p758
(dp759
g4
tp760
a(g758
(dp761
g754
(lp762
sg756
tp763
a(VCompleteQuery
p764
(dp765
g4
tp766
a(g764
(dp767
g754
(lp768
sg756
tp769
a(VNeedMoreHelp
p770
(dp771
g4
tp772
a(g770
(dp773
g754
(lp774
sg756
tp775
a(g758
(dp776
g4
tp777
a(g758
(dp778
g754
(lp779
sg756
tp780
aF1.0
aI01
aI00
ag30
(S'\x07\xe3\x01\x12'
p781
tp782
Rp783
aF1547856488.628598
aF1547856550.825782
aa(lp784
(VGreet
p785
(dp786
g4
tp787
a(g785
(dp788
S'good-bad'
p789
(lp790
sS'human_ready'
p791
tp792
a(VHowHelp
p793
(dp794
g4
tp795
a(g793
(dp796
g789
(lp797
sg791
tp798
a(VCompleteQuery
p799
(dp800
g4
tp801
a(g799
(dp802
g789
(lp803
sg791
tp804
a(VNeedMoreHelp
p805
(dp806
g4
tp807
a(g805
(dp808
g789
(lp809
sS'human_ignore'
p810
tp811
a(VBye
p812
(dp813
g4
tp814
a(g812
(dp815
g789
(lp816
sg791
tp817
aF1.0
aI00
aI00
ag30
(S'\x07\xe3\x01\x12'
p818
tp819
Rp820
aF1547857960.572659
aF1547857991.435999
aa.