(lp0
(lp1
(VGreet
p2
(dp3
S''
p4
tp5
a(g2
(dp6
S'good-bad'
p7
(lp8
sS'human_ready'
p9
tp10
a(VHowHelp
p11
(dp12
g4
tp13
a(g11
(dp14
g7
(lp15
sg9
tp16
a(VCompleteQuery
p17
(dp18
g4
tp19
a(g17
(dp20
g7
(lp21
sg9
tp22
a(VNeedMoreHelp
p23
(dp24
g4
tp25
a(g23
(dp26
g7
(lp27
sg9
tp28
a(g17
(dp29
g4
tp30
a(g17
(dp31
g7
(lp32
sg9
tp33
a(g23
(dp34
g4
tp35
a(g23
(dp36
g7
(lp37
sg9
tp38
a(g17
(dp39
g4
tp40
a(g17
(dp41
g7
(lp42
sg9
tp43
a(g23
(dp44
g4
tp45
a(g23
(dp46
g7
(lp47
sS'human_ignore'
p48
tp49
a(VBye
p50
(dp51
g4
tp52
a(g50
(dp53
g7
(lp54
sg48
tp55
aF0.0
aI00
aI00
aI00
aI158769368
acdatetime
date
p56
(S'\x07\xe3\x01\x1b'
p57
tp58
Rp59
aF1548617373.726498
aF1548617451.670501
aa(lp60
(g2
(dp61
g4
tp62
a(g2
(dp63
g7
(lp64
sg9
tp65
a(g11
(dp66
g4
tp67
a(g11
(dp68
g7
(lp69
sg9
tp70
a(g17
(dp71
g4
tp72
a(g17
(dp73
g7
(lp74
sg9
tp75
a(g23
(dp76
g4
tp77
a(g23
(dp78
g7
(lp79
sg9
tp80
a(g17
(dp81
g4
tp82
a(g17
(dp83
g7
(lp84
sg9
tp85
a(g23
(dp86
g4
tp87
a(g23
(dp88
g7
(lp89
sg9
tp90
a(g17
(dp91
g4
tp92
a(g17
(dp93
g7
(lp94
sg9
tp95
a(g23
(dp96
g4
tp97
a(g23
(dp98
g7
(lp99
sg48
tp100
a(g50
(dp101
g4
tp102
a(g50
(dp103
g7
(lp104
sg9
tp105
aF0.0
aI00
aI00
aI00
aI179095378
ag56
(S'\x07\xe3\x01\x1b'
p106
tp107
Rp108
aF1548617779.316947
aF1548617834.30157
aa(lp109
(g2
(dp110
g4
tp111
a(g2
(dp112
g7
(lp113
sg48
tp114
a(g2
(dp115
g4
tp116
a(g2
(dp117
g7
(lp118
sg9
tp119
a(g11
(dp120
g4
tp121
a(g11
(dp122
g7
(lp123
sg9
tp124
a(g17
(dp125
g4
tp126
a(g17
(dp127
g7
(lp128
sg9
tp129
a(g23
(dp130
g4
tp131
a(g23
(dp132
g7
(lp133
sg9
tp134
a(g17
(dp135
g4
tp136
a(g17
(dp137
g7
(lp138
sg9
tp139
a(g23
(dp140
g4
tp141
a(g23
(dp142
g7
(lp143
sg9
tp144
a(g17
(dp145
g4
tp146
a(g17
(dp147
g7
(lp148
sg9
tp149
a(g23
(dp150
g4
tp151
a(g23
(dp152
g7
(lp153
sg48
tp154
a(g50
(dp155
g4
tp156
a(g50
(dp157
g7
(lp158
sg48
tp159
aF0.0
aI00
aI00
aI00
aI196404808
ag56
(S'\x07\xe3\x01\x1b'
p160
tp161
Rp162
aF1548619944.493546
aF1548620046.48641
aa(lp163
(g2
(dp164
g4
tp165
a(g2
(dp166
g7
(lp167
sg9
tp168
a(g11
(dp169
g4
tp170
a(g11
(dp171
g7
(lp172
sg48
tp173
a(g2
(dp174
g4
tp175
a(g2
(dp176
g7
(lp177
sg48
tp178
a(g2
(dp179
g4
tp180
a(g2
(dp181
g7
(lp182
sg48
tp183
a(g2
(dp184
g4
tp185
a(g2
(dp186
g7
(lp187
sg9
tp188
a(g11
(dp189
g4
tp190
a(g11
(dp191
g7
(lp192
sg9
tp193
a(g17
(dp194
g4
tp195
a(g17
(dp196
g7
(lp197
sg9
tp198
a(g23
(dp199
g4
tp200
a(g23
(dp201
g7
(lp202
sg48
tp203
aF-1.0
aI01
aI00
aI01
aI162489570
ag56
(S'\x07\xe3\x01\x1b'
p204
tp205
Rp206
aF1548620374.00063
aF1548620472.239864
aa.