(lp0
(lp1
(VGreeting
p2
(dp3
S''
p4
tp5
a(g2
(dp6
S'good-bad'
p7
(lp8
sS'human_goodbye'
p9
tp10
a(VFarewell
p11
(dp12
g4
tp13
a(g11
(dp14
g7
(lp15
sS'human_ignore'
p16
tp17
aF-1.0
aI00
aI00
aI00
aI0
acdatetime
date
p18
(S'\x07\xe3\x06\x14'
p19
tp20
Rp21
aF1561072865.692693
aF1561072882.519391
aa(lp22
(VGreeting
p23
(dp24
g4
tp25
a(g23
(dp26
S'good-bad'
p27
(lp28
sS'human_goodbye'
p29
tp30
a(VFarewell
p31
(dp32
g4
tp33
a(g31
(dp34
g27
(lp35
sS'human_general'
p36
tp37
aF-1.0
aI00
aI00
aI00
aI0
ag18
(S'\x07\xe3\x06\x15'
p38
tp39
Rp40
aF1561138900.129214
aF1561138916.781461
aa(lp41
(VGreeting
p42
(dp43
g4
tp44
a(g42
(dp45
S'good-bad'
p46
(lp47
sS'human_ignore'
p48
tp49
a(VPromptToAsk
p50
(dp51
g4
tp52
a(g50
(dp53
g46
(lp54
sg48
tp55
a(g50
(dp56
g4
tp57
a(g50
(dp58
g46
(lp59
sS'human_goodbye'
p60
tp61
a(VFarewell
p62
(dp63
g4
tp64
a(g62
(dp65
g46
(lp66
sg48
tp67
aF-1.0
aI00
aI00
aI00
aI0
ag18
(S'\x07\xe3\x06\x18'
p68
tp69
Rp70
aF1561401808.878595
aF1561401854.567739
aa(lp71
(VGreeting
p72
(dp73
g4
tp74
a(g72
(dp75
S'good-bad'
p76
(lp77
sS'human_general'
p78
tp79
aF0.0
aI00
aI00
aI01
aI0
ag18
(S'\x07\xe3\x06\x18'
p80
tp81
Rp82
aF1561403994.656416
aF1561403999.084779
aa(lp83
(VGreeting
p84
(dp85
g4
tp86
a(g84
(dp87
S'good-bad'
p88
(lp89
sS'human_goodbye'
p90
tp91
a(VFarewell
p92
(dp93
g4
tp94
a(g92
(dp95
g88
(lp96
sS'human_general'
p97
tp98
aF-1.0
aI00
aI00
aI00
aI0
ag18
(S'\x07\xe3\x06\x18'
p99
tp100
Rp101
aF1561404285.436641
aF1561404303.875259
aa(lp102
(VGreeting
p103
(dp104
g4
tp105
a(g103
(dp106
S'good-bad'
p107
(lp108
sS'human_goodbye'
p109
tp110
aF1.0
aI00
aI00
aI01
aI0
ag18
(S'\x07\xe3\x06\x18'
p111
tp112
Rp113
aF1561404802.317241
aF1561404807.88528
aa(lp114
(VGreeting
p115
(dp116
g4
tp117
a(g115
(dp118
S'good-bad'
p119
(lp120
sS'human_general'
p121
tp122
a(VPromptToAsk
p123
(dp124
g4
tp125
a(g123
(dp126
g119
(lp127
sS'human_goodbye'
p128
tp129
a(VFarewell
p130
(dp131
g4
tp132
a(g130
(dp133
g119
(lp134
sS'human_goodbye'
p135
tp136
aF1.0
aI00
aI00
aI00
aI0
ag18
(S'\x07\xe3\x06\x18'
p137
tp138
Rp139
aF1561405835.271042
aF1561405857.759157
aa(lp140
(VGreeting
p141
(dp142
g4
tp143
a(g141
(dp144
S'good-bad'
p145
(lp146
sS'human_goodbye'
p147
tp148
a(VFarewell
p149
(dp150
g4
tp151
a(g149
(dp152
g145
(lp153
sS'human_general'
p154
tp155
aF0.0
aI00
aI00
aI00
aI0
ag18
(S'\x07\xe3\x06\x18'
p156
tp157
Rp158
aF1561407300.421974
aF1561407319.100245
aa(lp159
(g141
(dp160
g4
tp161
a(g141
(dp162
g145
(lp163
sS'human_goodbye'
p164
tp165
a(g149
(dp166
g4
tp167
a(g149
(dp168
g145
(lp169
sS'human_general'
p170
tp171
aF0.0
aI00
aI00
aI00
aI1
ag18
(S'\x07\xe3\x06\x18'
p172
tp173
Rp174
aF1561407339.139198
aF1561407354.044666
aa(lp175
(VGreeting
p176
(dp177
g4
tp178
a(g176
(dp179
S'good-bad'
p180
(lp181
sS'human_general'
p182
tp183
a(VPromptToAsk
p184
(dp185
g4
tp186
a(g184
(dp187
g180
(lp188
sS'human_goodbye'
p189
tp190
a(VFarewell
p191
(dp192
g4
tp193
a(g191
(dp194
g180
(lp195
sS'human_goodbye'
p196
tp197
aF0.0
aI00
aI00
aI00
aI0
ag18
(S'\x07\xe3\x06\x18'
p198
tp199
Rp200
aF1561411701.448594
aF1561411724.156335
aa(lp201
(g176
(dp202
g4
tp203
a(g176
(dp204
g180
(lp205
sS'human_general'
p206
tp207
a(g184
(dp208
g4
tp209
a(g184
(dp210
g180
(lp211
sS'human_goodbye'
p212
tp213
a(g191
(dp214
g4
tp215
a(g191
(dp216
g180
(lp217
sS'human_goodbye'
p218
tp219
aF0.0
aI00
aI00
aI00
aI1
ag18
(S'\x07\xe3\x06\x18'
p220
tp221
Rp222
aF1561411728.168126
aF1561411747.179528
aa(lp223
(g176
(dp224
g4
tp225
a(g176
(dp226
g180
(lp227
sS'human_general'
p228
tp229
a(g184
(dp230
g4
tp231
a(g184
(dp232
g180
(lp233
sS'human_about'
p234
tp235
a(VAnswerQuestion
p236
(dp237
g4
tp238
a(g236
(dp239
g180
(lp240
sS'human_goodbye'
p241
tp242
a(g191
(dp243
g4
tp244
a(g191
(dp245
g180
(lp246
sS'human_goodbye'
p247
tp248
aF-1.0
aI00
aI00
aI00
aI2
ag18
(S'\x07\xe3\x06\x18'
p249
tp250
Rp251
aF1561411752.793887
aF1561411774.698678
aa(lp252
(g176
(dp253
g4
tp254
a(g176
(dp255
g180
(lp256
sS'human_goodbye'
p257
tp258
a(g191
(dp259
g4
tp260
a(g191
(dp261
g180
(lp262
sS'human_visitation'
p263
tp264
aF1.0
aI00
aI00
aI00
aI3
ag18
(S'\x07\xe3\x06\x18'
p265
tp266
Rp267
aF1561411777.910495
aF1561411789.848739
aa(lp268
(VGreeting
p269
(dp270
g4
tp271
a(g269
(dp272
S'good-bad'
p273
(lp274
sS'human_general'
p275
tp276
a(VPromptToAsk
p277
(dp278
g4
tp279
a(g277
(dp280
g273
(lp281
sS'human_general'
p282
tp283
a(g277
(dp284
g4
tp285
a(g277
(dp286
g273
(lp287
sS'human_general'
p288
tp289
a(g277
(dp290
g4
tp291
a(g277
(dp292
g273
(lp293
sS'human_visitation'
p294
tp295
a(VReferToDesk
p296
(dp297
g4
tp298
a(g296
(dp299
g273
(lp300
sS'human_goodbye'
p301
tp302
a(VFarewell
p303
(dp304
g4
tp305
a(g303
(dp306
g273
(lp307
sS'human_general'
p308
tp309
aF-1.0
aI00
aI00
aI00
aI0
ag18
(S'\x07\xe3\x06\x18'
p310
tp311
Rp312
aF1561412477.129203
aF1561412520.242775
aa(lp313
(VGreeting
p314
(dp315
g4
tp316
a(g314
(dp317
S'good-bad'
p318
(lp319
sS'human_general'
p320
tp321
a(VPromptToAsk
p322
(dp323
g4
tp324
a(g322
(dp325
g318
(lp326
sS'human_goodbye'
p327
tp328
a(VFarewell
p329
(dp330
g4
tp331
a(g329
(dp332
g318
(lp333
sS'human_general'
p334
tp335
aF-1.0
aI00
aI00
aI00
aI0
ag18
(S'\x07\xe3\x06\x18'
p336
tp337
Rp338
aF1561412633.863859
aF1561412653.02626
aa(lp339
(VGreeting
p340
(dp341
g4
tp342
a(g340
(dp343
S'good-bad'
p344
(lp345
sS'human_general'
p346
tp347
a(VPromptToAsk
p348
(dp349
g4
tp350
a(g348
(dp351
g344
(lp352
sS'human_general'
p353
tp354
a(g348
(dp355
g4
tp356
a(g348
(dp357
g344
(lp358
sS'human_goodbye'
p359
tp360
a(VFarewell
p361
(dp362
g4
tp363
a(g361
(dp364
g344
(lp365
sS'human_ignore'
p366
tp367
aF-1.0
aI00
aI00
aI00
aI0
ag18
(S'\x07\xe3\x06\x18'
p368
tp369
Rp370
aF1561418737.163277
aF1561418776.314956
aa(lp371
(VGreeting
p372
(dp373
g4
tp374
a(g372
(dp375
S'good-bad'
p376
(lp377
sS'human_general'
p378
tp379
aF-1.0
aI00
aI00
aI01
aI0
ag18
(S'\x07\xe3\x06\x19'
p380
tp381
Rp382
aF1561472375.776661
aF1561472381.82762
aa(lp383
(VGreeting
p384
(dp385
g4
tp386
a(g384
(dp387
g376
(lp388
sS'human_general'
p389
tp390
a(VPromptToAsk
p391
(dp392
g4
tp393
a(g391
(dp394
g376
(lp395
sS'human_about'
p396
tp397
a(VAnswerQuestion
p398
(dp399
g4
tp400
a(g398
(dp401
g376
(lp402
sS'human_goodbye'
p403
tp404
a(VFarewell
p405
(dp406
g4
tp407
a(g405
(dp408
g376
(lp409
sS'human_goodbye'
p410
tp411
aF0.0
aI00
aI00
aI00
aI1
ag18
(S'\x07\xe3\x06\x19'
p412
tp413
Rp414
aF1561472411.481075
aF1561472433.100403
aa.