(lp0
(lp1
(VGreet
p2
(dp3
S''
p4
tp5
a(g2
(dp6
S'good-bad'
p7
(lp8
sS'human_ready'
p9
tp10
a(VAnswerQuestions
p11
(dp12
g4
tp13
a(g11
(dp14
g7
(lp15
sS'human_ignore'
p16
tp17
a(VBye
p18
(dp19
g4
tp20
a(g18
(dp21
g7
(lp22
sg9
tp23
aNaI00
aI00
acdatetime
date
p24
(S'\x07\xe3\x05\x0f'
p25
tp26
Rp27
aF1557955084.788128
aF1557955115.21285
aa(lp28
(VGreet
p29
(dp30
g4
tp31
a(g29
(dp32
S'good-bad'
p33
(lp34
sS'human_ready'
p35
tp36
a(VAnswerQuestions
p37
(dp38
g4
tp39
a(g37
(dp40
g33
(lp41
sg35
tp42
a(g37
(dp43
g4
tp44
a(g37
(dp45
g33
(lp46
sS'human_ignore'
p47
tp48
a(VBye
p49
(dp50
g4
tp51
a(g49
(dp52
g33
(lp53
sg35
tp54
aNaI00
aI00
ag24
(S'\x07\xe3\x05\x0f'
p55
tp56
Rp57
aF1557968512.146033
aF1557968550.504516
aa(lp58
(VGreet
p59
(dp60
g4
tp61
a(g59
(dp62
S'good-bad'
p63
(lp64
sS'human_ready'
p65
tp66
a(VAnswerQuestions
p67
(dp68
g4
tp69
a(g67
(dp70
g63
(lp71
sS'human_ignore'
p72
tp73
a(VBye
p74
(dp75
g4
tp76
a(g74
(dp77
g63
(lp78
sg65
tp79
aNaI00
aI00
ag24
(S'\x07\xe3\x05\x0f'
p80
tp81
Rp82
aF1557968877.90123
aF1557968905.230818
aa(lp83
(VGreet
p84
(dp85
g4
tp86
a(g84
(dp87
S'good-bad'
p88
(lp89
sS'human_ignore'
p90
tp91
a(g84
(dp92
g4
tp93
a(g84
(dp94
g88
(lp95
sS'human_ready'
p96
tp97
a(VAnswerQuestions
p98
(dp99
g4
tp100
a(g98
(dp101
g88
(lp102
sg90
tp103
a(VBye
p104
(dp105
g4
tp106
a(g104
(dp107
g88
(lp108
sg96
tp109
aNaI00
aI00
ag24
(S'\x07\xe3\x05\x0f'
p110
tp111
Rp112
aF1557969773.84323
aF1557969814.136294
aa(lp113
(VGreet
p114
(dp115
g4
tp116
a(g114
(dp117
S'good-bad'
p118
(lp119
sS'human_ready'
p120
tp121
a(VAnswerQuestions
p122
(dp123
g4
tp124
a(g122
(dp125
g118
(lp126
sg120
tp127
a(g122
(dp128
g4
tp129
a(g122
(dp130
g118
(lp131
sS'human_ignore'
p132
tp133
a(VBye
p134
(dp135
g4
tp136
a(g134
(dp137
g118
(lp138
sg132
tp139
aNaI00
aI00
ag24
(S'\x07\xe3\x05\x0f'
p140
tp141
Rp142
aF1557969976.897959
aF1557970005.79902
aa(lp143
(VGreet
p144
(dp145
g4
tp146
a(g144
(dp147
S'good-bad'
p148
(lp149
sS'human_ignore'
p150
tp151
a(g144
(dp152
g4
tp153
a(g144
(dp154
g148
(lp155
sS'human_ready'
p156
tp157
a(VAnswerQuestions
p158
(dp159
g4
tp160
a(g158
(dp161
g148
(lp162
sg150
tp163
a(VBye
p164
(dp165
g4
tp166
a(g164
(dp167
g148
(lp168
sg156
tp169
aNaI00
aI00
ag24
(S'\x07\xe3\x05\x0f'
p170
tp171
Rp172
aF1557970297.236976
aF1557970322.163076
aa(lp173
(g144
(dp174
g4
tp175
a(g144
(dp176
g148
(lp177
sg150
tp178
a(g144
(dp179
g4
tp180
a(g144
(dp181
g148
(lp182
sg156
tp183
a(g158
(dp184
g4
tp185
a(g158
(dp186
g148
(lp187
sg150
tp188
a(g164
(dp189
g4
tp190
a(g164
(dp191
g148
(lp192
sg150
tp193
aNaI00
aI00
ag24
(S'\x07\xe3\x05\x0f'
p194
tp195
Rp196
aF1557970327.297515
aF1557970352.222876
aa(lp197
(VGreet
p198
(dp199
g4
tp200
a(g198
(dp201
S'good-bad'
p202
(lp203
sS'human_ignore'
p204
tp205
a(g198
(dp206
g4
tp207
a(g198
(dp208
g202
(lp209
sS'human_ready'
p210
tp211
a(VAnswerQuestions
p212
(dp213
g4
tp214
a(g212
(dp215
g202
(lp216
sg204
tp217
a(VBye
p218
(dp219
g4
tp220
a(g218
(dp221
g202
(lp222
sg210
tp223
aNaI00
aI00
ag24
(S'\x07\xe3\x05\x0f'
p224
tp225
Rp226
aF1557970714.584747
aF1557970737.746268
aa(lp227
(VGreet
p228
(dp229
g4
tp230
a(g228
(dp231
S'good-bad'
p232
(lp233
sS'human_ready'
p234
tp235
a(VAnswerQuestions
p236
(dp237
g4
tp238
a(g236
(dp239
g232
(lp240
sS'human_ignore'
p241
tp242
a(VBye
p243
(dp244
g4
tp245
a(g243
(dp246
g232
(lp247
sg241
tp248
aNaI00
aI00
ag24
(S'\x07\xe3\x05\x0f'
p249
tp250
Rp251
aF1557971747.953752
aF1557971769.236478
aa(lp252
(g228
(dp253
g4
tp254
a(g228
(dp255
g232
(lp256
sg234
tp257
a(g236
(dp258
g4
tp259
a(g236
(dp260
g232
(lp261
sg234
tp262
a(g236
(dp263
g4
tp264
a(g236
(dp265
g232
(lp266
sg241
tp267
a(g243
(dp268
g4
tp269
a(g243
(dp270
g232
(lp271
sg234
tp272
aNaI00
aI00
ag24
(S'\x07\xe3\x05\x0f'
p273
tp274
Rp275
aF1557971779.938791
aF1557971807.018046
aa(lp276
(VGreet
p277
(dp278
g4
tp279
a(g277
(dp280
S'good-bad'
p281
(lp282
sS'human_ready'
p283
tp284
a(VJoke
p285
(dp286
g4
tp287
a(g285
(dp288
g281
(lp289
sg283
tp290
a(g285
(dp291
g4
tp292
a(g285
(dp293
g281
(lp294
sg283
tp295
a(g285
(dp296
g4
tp297
a(g285
(dp298
g281
(lp299
sS'human_ignore'
p300
tp301
a(VBye
p302
(dp303
g4
tp304
a(g302
(dp305
g281
(lp306
sg300
tp307
aNaI00
aI00
ag24
(S'\x07\xe3\x05\x10'
p308
tp309
Rp310
aF1558031310.250559
aF1558031345.651453
aa(lp311
(VGreet
p312
(dp313
g4
tp314
a(g312
(dp315
S'good-bad'
p316
(lp317
sS'human_ready'
p318
tp319
a(VJoke
p320
(dp321
g4
tp322
a(g320
(dp323
g316
(lp324
sg318
tp325
a(g320
(dp326
g4
tp327
a(g320
(dp328
g316
(lp329
sg318
tp330
a(g320
(dp331
g4
tp332
a(g320
(dp333
g316
(lp334
sg318
tp335
a(g320
(dp336
g4
tp337
a(g320
(dp338
g316
(lp339
sS'human_ignore'
p340
tp341
a(VBye
p342
(dp343
g4
tp344
a(g342
(dp345
g316
(lp346
sg340
tp347
aNaI00
aI00
ag24
(S'\x07\xe3\x05\x10'
p348
tp349
Rp350
aF1558034289.612719
aF1558034343.877965
aa(lp351
(VGreet
p352
(dp353
g4
tp354
a(g352
(dp355
S'good-bad'
p356
(lp357
sS'human_ready'
p358
tp359
a(VJoke
p360
(dp361
g4
tp362
a(g360
(dp363
g356
(lp364
sg358
tp365
a(g360
(dp366
g4
tp367
a(g360
(dp368
g356
(lp369
sS'human_ignore'
p370
tp371
aNaI01
aI00
ag24
(S'\x07\xe3\x05\x10'
p372
tp373
Rp374
aF1558036266.609689
aF1558036688.872374
aa(lp375
(VGreet
p376
(dp377
g4
tp378
a(g376
(dp379
S'good-bad'
p380
(lp381
sS'human_ready_sports'
p382
tp383
a(VConversation
p384
(dp385
g4
tp386
a(g384
(dp387
g380
(lp388
sS'human_ready_sports'
p389
tp390
a(VJoke
p391
(dp392
g4
tp393
a(g391
(dp394
g380
(lp395
sS'human_ignore'
p396
tp397
a(g376
(dp398
g4
tp399
a(g376
(dp400
g380
(lp401
sg396
tp402
a(g376
(dp403
g4
tp404
a(g376
(dp405
g380
(lp406
sS'human_ready_goodbye'
p407
tp408
a(VBye
p409
(dp410
g4
tp411
a(g409
(dp412
g380
(lp413
sS'human_ready_general'
p414
tp415
aNaI00
aI00
ag24
(S'\x07\xe3\x05\x10'
p416
tp417
Rp418
aF1558038386.966159
aF1558038433.058803
aa(lp419
(VGreet
p420
(dp421
g4
tp422
a(g420
(dp423
S'good-bad'
p424
(lp425
sS'human_ready_hello'
p426
tp427
a(VConversation
p428
(dp429
g4
tp430
a(g428
(dp431
g424
(lp432
sS'human_ready_sports'
p433
tp434
a(g428
(dp435
g4
tp436
a(g428
(dp437
g424
(lp438
sS'human_ignore'
p439
tp440
aNaI00
aI00
ag24
(S'\x07\xe3\x05\x10'
p441
tp442
Rp443
aF1558038814.954539
aF1558038836.733538
aa(lp444
(VGreet
p445
(dp446
g4
tp447
a(g445
(dp448
S'good-bad'
p449
(lp450
sS'human_ready_goodbye'
p451
tp452
a(VBye
p453
(dp454
g4
tp455
a(g453
(dp456
g449
(lp457
sS'human_ready_weather'
p458
tp459
aNaI00
aI00
ag24
(S'\x07\xe3\x05\x11'
p460
tp461
Rp462
aF1558110925.513268
aF1558110942.358022
aa(lp463
(VGreet
p464
(dp465
g4
tp466
a(g464
(dp467
S'good-bad'
p468
(lp469
sS'human_ready_goodbye'
p470
tp471
a(VBye
p472
(dp473
g4
tp474
a(g472
(dp475
g468
(lp476
sS'human_ready_about'
p477
tp478
aNaI00
aI00
ag24
(S'\x07\xe3\x05\x11'
p479
tp480
Rp481
aF1558111076.818634
aF1558111091.743874
aa(lp482
(VGreet
p483
(dp484
g4
tp485
a(g483
(dp486
S'good-bad'
p487
(lp488
sS'human_ignore'
p489
tp490
a(VListOptions
p491
(dp492
g4
tp493
a(g491
(dp494
g487
(lp495
sg489
tp496
a(VHowHelp
p497
(dp498
g4
tp499
a(g497
(dp500
g487
(lp501
sS'human_ready_eat'
p502
tp503
a(VConversation
p504
(dp505
g4
tp506
a(g504
(dp507
g487
(lp508
sS'human_ready_eat'
p509
tp510
a(g504
(dp511
g4
tp512
a(g504
(dp513
g487
(lp514
sg489
tp515
a(g491
(dp516
g4
tp517
a(g491
(dp518
g487
(lp519
sg489
tp520
a(g497
(dp521
g4
tp522
a(g497
(dp523
g487
(lp524
sS'human_ready_eat'
p525
tp526
a(g504
(dp527
g4
tp528
a(g504
(dp529
g487
(lp530
sS'human_ready_eat'
p531
tp532
a(g504
(dp533
g4
tp534
a(g504
(dp535
g487
(lp536
sS'human_ready_eat'
p537
tp538
a(g504
(dp539
g4
tp540
a(g504
(dp541
g487
(lp542
sS'human_ready_goodbye'
p543
tp544
a(VBye
p545
(dp546
g4
tp547
a(g545
(dp548
g487
(lp549
sS'human_ready_jokes'
p550
tp551
aNaI00
aI00
ag24
(S'\x07\xe3\x05\x11'
p552
tp553
Rp554
aF1558114268.838045
aF1558114373.844247
aa(lp555
(VGreet
p556
(dp557
g4
tp558
a(g556
(dp559
S'good-bad'
p560
(lp561
sS'human_ready_dance'
p562
tp563
a(VDancing
p564
(dp565
g4
tp566
a(g564
(dp567
g560
(lp568
sS'human_ready_general'
p569
tp570
a(VHowHelp
p571
(dp572
g4
tp573
a(g571
(dp574
g560
(lp575
sS'human_ready_general'
p576
tp577
a(VConversation
p578
(dp579
g4
tp580
a(g578
(dp581
g560
(lp582
sS'human_ready_goodbye'
p583
tp584
a(VBye
p585
(dp586
g4
tp587
a(g585
(dp588
g560
(lp589
sS'human_ready_hello'
p590
tp591
aNaI00
aI00
ag24
(S'\x07\xe3\x05\x11'
p592
tp593
Rp594
aF1558123721.030031
aF1558123806.947782
aa(lp595
(VGreet
p596
(dp597
g4
tp598
a(g596
(dp599
S'good-bad'
p600
(lp601
sS'human_ready_dance'
p602
tp603
a(VDancing
p604
(dp605
g4
tp606
a(g604
(dp607
g600
(lp608
sS'human_ready_general'
p609
tp610
a(VHowHelp
p611
(dp612
g4
tp613
a(g611
(dp614
g600
(lp615
sS'human_ready_jokes'
p616
tp617
a(VJoke
p618
(dp619
g4
tp620
a(g618
(dp621
g600
(lp622
sS'human_ignore'
p623
tp624
a(g611
(dp625
g4
tp626
a(g611
(dp627
g600
(lp628
sg623
tp629
a(VListOptions
p630
(dp631
g4
tp632
a(g630
(dp633
g600
(lp634
sg623
tp635
a(g611
(dp636
g4
tp637
a(g611
(dp638
g600
(lp639
sg623
tp640
a(g630
(dp641
g4
tp642
a(g630
(dp643
g600
(lp644
sg623
tp645
a(g611
(dp646
g4
tp647
a(g611
(dp648
g600
(lp649
sS'human_ready_goodbye'
p650
tp651
a(VBye
p652
(dp653
g4
tp654
a(g652
(dp655
g600
(lp656
sg623
tp657
aNaI00
aI00
ag24
(S'\x07\xe3\x05\x11'
p658
tp659
Rp660
aF1558127519.194247
aF1558127633.859208
aa(lp661
(VGreet
p662
(dp663
g4
tp664
a(g662
(dp665
S'good-bad'
p666
(lp667
sS'human_ready_dance'
p668
tp669
a(VDancing
p670
(dp671
g4
tp672
a(g670
(dp673
g666
(lp674
sS'human_ready_general'
p675
tp676
a(VHowHelp
p677
(dp678
g4
tp679
a(g677
(dp680
g666
(lp681
sS'human_ready_general'
p682
tp683
a(VConversation
p684
(dp685
g4
tp686
a(g684
(dp687
g666
(lp688
sS'human_ignore'
p689
tp690
a(VListOptions
p691
(dp692
g4
tp693
a(g691
(dp694
g666
(lp695
sg689
tp696
a(g677
(dp697
g4
tp698
a(g677
(dp699
g666
(lp700
sS'human_ready_goodbye'
p701
tp702
a(VBye
p703
(dp704
g4
tp705
a(g703
(dp706
g666
(lp707
sS'human_ready_general'
p708
tp709
aNaI00
aI00
ag24
(S'\x07\xe3\x05\x11'
p710
tp711
Rp712
aF1558132831.61086
aF1558132928.900216
aa(lp713
(g662
(dp714
g4
tp715
a(g662
(dp716
g666
(lp717
sS'human_ready_dance'
p718
tp719
a(g670
(dp720
g4
tp721
a(g670
(dp722
g666
(lp723
sS'human_ready_general'
p724
tp725
a(g677
(dp726
g4
tp727
a(g677
(dp728
g666
(lp729
sS'human_ready_goodbye'
p730
tp731
a(g703
(dp732
g4
tp733
a(g703
(dp734
g666
(lp735
sg689
tp736
aNaI00
aI00
ag24
(S'\x07\xe3\x05\x11'
p737
tp738
Rp739
aF1558132989.077532
aF1558133057.398022
aa(lp740
(VGreet
p741
(dp742
g4
tp743
a(g741
(dp744
S'good-bad'
p745
(lp746
sS'human_ready_hello'
p747
tp748
a(VHowHelp
p749
(dp750
g4
tp751
a(g749
(dp752
g745
(lp753
sS'human_ready_general'
p754
tp755
a(VConversation
p756
(dp757
g4
tp758
a(g756
(dp759
g745
(lp760
sS'human_ready_dance'
p761
tp762
a(VDancing
p763
(dp764
g4
tp765
a(g763
(dp766
g745
(lp767
sS'human_ready_general'
p768
tp769
a(g749
(dp770
g4
tp771
a(g749
(dp772
g745
(lp773
sS'human_ready_general'
p774
tp775
a(g756
(dp776
g4
tp777
a(g756
(dp778
g745
(lp779
sS'human_ready_eat'
p780
tp781
a(g756
(dp782
g4
tp783
a(g756
(dp784
g745
(lp785
sS'human_ready_general'
p786
tp787
a(g756
(dp788
g4
tp789
a(g756
(dp790
g745
(lp791
sS'human_ready_general'
p792
tp793
a(g756
(dp794
g4
tp795
a(g756
(dp796
g745
(lp797
sS'human_ready_dance'
p798
tp799
a(g763
(dp800
g4
tp801
a(g763
(dp802
g745
(lp803
sS'human_ready_general'
p804
tp805
a(g749
(dp806
g4
tp807
a(g749
(dp808
g745
(lp809
sS'human_ready_general'
p810
tp811
a(g756
(dp812
g4
tp813
a(g756
(dp814
g745
(lp815
sS'human_ignore'
p816
tp817
a(VListOptions
p818
(dp819
g4
tp820
a(g818
(dp821
g745
(lp822
sg816
tp823
a(g749
(dp824
g4
tp825
a(g749
(dp826
g745
(lp827
sS'human_ready_jokes'
p828
tp829
a(VJoke
p830
(dp831
g4
tp832
a(g830
(dp833
g745
(lp834
sS'human_ready_general'
p835
tp836
a(g749
(dp837
g4
tp838
a(g749
(dp839
g745
(lp840
sS'human_ready_general'
p841
tp842
a(g756
(dp843
g4
tp844
a(g756
(dp845
g745
(lp846
sg816
tp847
a(g818
(dp848
g4
tp849
a(g818
(dp850
g745
(lp851
sg816
tp852
a(g749
(dp853
g4
tp854
a(g749
(dp855
g745
(lp856
sS'human_ready_eat'
p857
tp858
a(g756
(dp859
g4
tp860
a(g756
(dp861
g745
(lp862
sg816
tp863
a(g818
(dp864
g4
tp865
a(g818
(dp866
g745
(lp867
sg816
tp868
a(g749
(dp869
g4
tp870
a(g749
(dp871
g745
(lp872
sS'human_ready_goodbye'
p873
tp874
a(VBye
p875
(dp876
g4
tp877
a(g875
(dp878
g745
(lp879
sg816
tp880
aNaI00
aI00
ag24
(S'\x07\xe3\x05\x11'
p881
tp882
Rp883
aF1558134628.46633
aF1558134924.385676
aa(lp884
(g741
(dp885
g4
tp886
a(g741
(dp887
g745
(lp888
sg816
tp889
a(g818
(dp890
g4
tp891
a(g818
(dp892
g745
(lp893
sg816
tp894
a(g749
(dp895
g4
tp896
a(g749
(dp897
g745
(lp898
sS'human_ready_goodbye'
p899
tp900
a(g875
(dp901
g4
tp902
a(g875
(dp903
g745
(lp904
sg816
tp905
aNaI00
aI00
ag24
(S'\x07\xe3\x05\x11'
p906
tp907
Rp908
aF1558135350.269179
aF1558135378.637726
aa(lp909
(VGreet
p910
(dp911
g4
tp912
a(g910
(dp913
S'good-bad'
p914
(lp915
sS'human_ready_jokes'
p916
tp917
a(VJoke
p918
(dp919
g4
tp920
a(g918
(dp921
g914
(lp922
sS'human_ignore'
p923
tp924
a(VHowHelp
p925
(dp926
g4
tp927
a(g925
(dp928
g914
(lp929
sS'human_ready_general'
p930
tp931
a(VConversation
p932
(dp933
g4
tp934
a(g932
(dp935
g914
(lp936
sS'human_ready_dance'
p937
tp938
a(VDancing
p939
(dp940
g4
tp941
a(g939
(dp942
g914
(lp943
sS'human_ready_general'
p944
tp945
a(g925
(dp946
g4
tp947
a(g925
(dp948
g914
(lp949
sS'human_ready_general'
p950
tp951
a(g932
(dp952
g4
tp953
a(g932
(dp954
g914
(lp955
sg923
tp956
a(g918
(dp957
g4
tp958
a(g918
(dp959
g914
(lp960
sg923
tp961
a(g925
(dp962
g4
tp963
a(g925
(dp964
g914
(lp965
sg923
tp966
a(g918
(dp967
g4
tp968
a(g918
(dp969
g914
(lp970
sS'human_ready_eat'
p971
tp972
a(g925
(dp973
g4
tp974
a(g925
(dp975
g914
(lp976
sS'human_ready_general'
p977
tp978
a(g932
(dp979
g4
tp980
a(g932
(dp981
g914
(lp982
sS'human_ready_about'
p983
tp984
a(g932
(dp985
g4
tp986
a(g932
(dp987
g914
(lp988
sS'human_ready_general'
p989
tp990
a(g932
(dp991
g4
tp992
a(g932
(dp993
g914
(lp994
sg923
tp995
a(g918
(dp996
g4
tp997
a(g918
(dp998
g914
(lp999
sg923
tp1000
a(g925
(dp1001
g4
tp1002
a(g925
(dp1003
g914
(lp1004
sS'human_ready_goodbye'
p1005
tp1006
a(VBye
p1007
(dp1008
g4
tp1009
a(g1007
(dp1010
g914
(lp1011
sg923
tp1012
aNaI00
aI00
ag24
(S'\x07\xe3\x05\x11'
p1013
tp1014
Rp1015
aF1558138201.645278
aF1558138393.937328
aa(lp1016
(VGreet
p1017
(dp1018
g4
tp1019
a(g1017
(dp1020
S'good-bad'
p1021
(lp1022
sS'human_ready_dance'
p1023
tp1024
a(VDancing
p1025
(dp1026
g4
tp1027
a(g1025
(dp1028
g1021
(lp1029
sS'human_ready_general'
p1030
tp1031
a(VHowHelp
p1032
(dp1033
g4
tp1034
a(g1032
(dp1035
g1021
(lp1036
sS'human_ready_eat'
p1037
tp1038
a(VConversation
p1039
(dp1040
g4
tp1041
a(g1039
(dp1042
g1021
(lp1043
sS'human_ready_general'
p1044
tp1045
a(g1039
(dp1046
g4
tp1047
a(g1039
(dp1048
g1021
(lp1049
sS'human_ready_general'
p1050
tp1051
a(g1039
(dp1052
g4
tp1053
a(g1039
(dp1054
g1021
(lp1055
sS'human_ready_dance'
p1056
tp1057
a(g1025
(dp1058
g4
tp1059
a(g1025
(dp1060
g1021
(lp1061
sS'human_ready_general'
p1062
tp1063
a(g1032
(dp1064
g4
tp1065
a(g1032
(dp1066
g1021
(lp1067
sS'human_ready_general'
p1068
tp1069
a(g1039
(dp1070
g4
tp1071
a(g1039
(dp1072
g1021
(lp1073
sS'human_ready_dance'
p1074
tp1075
a(g1025
(dp1076
g4
tp1077
a(g1025
(dp1078
g1021
(lp1079
sS'human_ready_general'
p1080
tp1081
a(g1032
(dp1082
g4
tp1083
a(g1032
(dp1084
g1021
(lp1085
sS'human_ready_general'
p1086
tp1087
a(g1039
(dp1088
g4
tp1089
a(g1039
(dp1090
g1021
(lp1091
sS'human_ready_dance'
p1092
tp1093
a(g1025
(dp1094
g4
tp1095
a(g1025
(dp1096
g1021
(lp1097
sS'human_ready_general'
p1098
tp1099
a(g1032
(dp1100
g4
tp1101
a(g1032
(dp1102
g1021
(lp1103
sS'human_ready_general'
p1104
tp1105
a(g1039
(dp1106
g4
tp1107
a(g1039
(dp1108
g1021
(lp1109
sS'human_ready_dance'
p1110
tp1111
a(g1025
(dp1112
g4
tp1113
a(g1025
(dp1114
g1021
(lp1115
sS'human_ready_general'
p1116
tp1117
a(g1032
(dp1118
g4
tp1119
a(g1032
(dp1120
g1021
(lp1121
sS'human_ready_general'
p1122
tp1123
a(g1039
(dp1124
g4
tp1125
a(g1039
(dp1126
g1021
(lp1127
sS'human_ready_hello'
p1128
tp1129
a(g1017
(dp1130
g4
tp1131
a(g1017
(dp1132
g1021
(lp1133
sS'human_ignore'
p1134
tp1135
a(g1032
(dp1136
g4
tp1137
a(g1032
(dp1138
g1021
(lp1139
sg1134
tp1140
a(VJoke
p1141
(dp1142
g4
tp1143
a(g1141
(dp1144
g1021
(lp1145
sg1134
tp1146
a(g1032
(dp1147
g4
tp1148
a(g1032
(dp1149
g1021
(lp1150
sS'human_ready_sports'
p1151
tp1152
a(g1039
(dp1153
g4
tp1154
a(g1039
(dp1155
g1021
(lp1156
sS'human_ready_dance'
p1157
tp1158
a(g1025
(dp1159
g4
tp1160
a(g1025
(dp1161
g1021
(lp1162
sS'human_ready_general'
p1163
tp1164
a(g1032
(dp1165
g4
tp1166
a(g1032
(dp1167
g1021
(lp1168
sS'human_ready_general'
p1169
tp1170
a(g1039
(dp1171
g4
tp1172
a(g1039
(dp1173
g1021
(lp1174
sg1134
tp1175
a(g1141
(dp1176
g4
tp1177
a(g1141
(dp1178
g1021
(lp1179
sS'human_ready_sports'
p1180
tp1181
a(g1032
(dp1182
g4
tp1183
a(g1032
(dp1184
g1021
(lp1185
sS'human_ready_dance'
p1186
tp1187
a(g1025
(dp1188
g4
tp1189
a(g1025
(dp1190
g1021
(lp1191
sS'human_ready_general'
p1192
tp1193
a(g1032
(dp1194
g4
tp1195
a(g1032
(dp1196
g1021
(lp1197
sS'human_ready_general'
p1198
tp1199
a(g1039
(dp1200
g4
tp1201
a(g1039
(dp1202
g1021
(lp1203
sS'human_ready_dance'
p1204
tp1205
a(g1025
(dp1206
g4
tp1207
a(g1025
(dp1208
g1021
(lp1209
sS'human_ready_general'
p1210
tp1211
a(g1032
(dp1212
g4
tp1213
a(g1032
(dp1214
g1021
(lp1215
sS'human_ready_general'
p1216
tp1217
a(g1039
(dp1218
g4
tp1219
a(g1039
(dp1220
g1021
(lp1221
sg1134
tp1222
a(g1141
(dp1223
g4
tp1224
a(g1141
(dp1225
g1021
(lp1226
sS'human_ready_general'
p1227
tp1228
a(g1032
(dp1229
g4
tp1230
a(g1032
(dp1231
g1021
(lp1232
sS'human_ready_general'
p1233
tp1234
a(g1039
(dp1235
g4
tp1236
a(g1039
(dp1237
g1021
(lp1238
sg1134
tp1239
a(g1141
(dp1240
g4
tp1241
a(g1141
(dp1242
g1021
(lp1243
sS'human_ready_dance'
p1244
tp1245
a(g1032
(dp1246
g4
tp1247
a(g1032
(dp1248
g1021
(lp1249
sS'human_ready_general'
p1250
tp1251
a(g1039
(dp1252
g4
tp1253
a(g1039
(dp1254
g1021
(lp1255
sS'human_ready_about'
p1256
tp1257
a(g1039
(dp1258
g4
tp1259
a(g1039
(dp1260
g1021
(lp1261
sS'human_ready_about'
p1262
tp1263
a(g1039
(dp1264
g4
tp1265
a(g1039
(dp1266
g1021
(lp1267
sS'human_ready_hello'
p1268
tp1269
a(g1017
(dp1270
g4
tp1271
a(g1017
(dp1272
g1021
(lp1273
sg1134
tp1274
a(g1032
(dp1275
g4
tp1276
a(g1032
(dp1277
g1021
(lp1278
sg1134
tp1279
a(g1141
(dp1280
g4
tp1281
a(g1141
(dp1282
g1021
(lp1283
sS'human_ready_general'
p1284
tp1285
a(g1032
(dp1286
g4
tp1287
a(g1032
(dp1288
g1021
(lp1289
sS'human_ready_dance'
p1290
tp1291
a(g1025
(dp1292
g4
tp1293
a(g1025
(dp1294
g1021
(lp1295
sS'human_ready_general'
p1296
tp1297
a(g1032
(dp1298
g4
tp1299
a(g1032
(dp1300
g1021
(lp1301
sS'human_ready_dance'
p1302
tp1303
a(g1025
(dp1304
g4
tp1305
a(g1025
(dp1306
g1021
(lp1307
sS'human_ready_general'
p1308
tp1309
a(g1032
(dp1310
g4
tp1311
a(g1032
(dp1312
g1021
(lp1313
sS'human_ready_general'
p1314
tp1315
a(g1039
(dp1316
g4
tp1317
a(g1039
(dp1318
g1021
(lp1319
sg1134
tp1320
a(g1141
(dp1321
g4
tp1322
a(g1141
(dp1323
g1021
(lp1324
sS'human_ready_eat'
p1325
tp1326
a(g1032
(dp1327
g4
tp1328
a(g1032
(dp1329
g1021
(lp1330
sS'human_ready_dance'
p1331
tp1332
a(g1025
(dp1333
g4
tp1334
a(g1025
(dp1335
g1021
(lp1336
sS'human_ready_general'
p1337
tp1338
a(g1032
(dp1339
g4
tp1340
a(g1032
(dp1341
g1021
(lp1342
sS'human_ready_general'
p1343
tp1344
a(g1039
(dp1345
g4
tp1346
a(g1039
(dp1347
g1021
(lp1348
sS'human_ready_eat'
p1349
tp1350
a(g1039
(dp1351
g4
tp1352
a(g1039
(dp1353
g1021
(lp1354
sS'human_ready_eat'
p1355
tp1356
a(g1039
(dp1357
g4
tp1358
a(g1039
(dp1359
g1021
(lp1360
sS'human_ready_eat'
p1361
tp1362
a(g1039
(dp1363
g4
tp1364
a(g1039
(dp1365
g1021
(lp1366
sS'human_ready_goodbye'
p1367
tp1368
a(VBye
p1369
(dp1370
g4
tp1371
a(g1369
(dp1372
g1021
(lp1373
sg1134
tp1374
aNaI00
aI00
ag24
(S'\x07\xe3\x05\x11'
p1375
tp1376
Rp1377
aF1558140155.292467
aF1558141261.035624
aa(lp1378
(g1017
(dp1379
g4
tp1380
a(g1017
(dp1381
g1021
(lp1382
sg1134
tp1383
a(g1032
(dp1384
g4
tp1385
a(g1032
(dp1386
g1021
(lp1387
sS'human_ready_eat'
p1388
tp1389
a(g1039
(dp1390
g4
tp1391
a(g1039
(dp1392
g1021
(lp1393
sS'human_ready_goodbye'
p1394
tp1395
a(g1369
(dp1396
g4
tp1397
a(g1369
(dp1398
g1021
(lp1399
sg1134
tp1400
aNaI00
aI00
ag24
(S'\x07\xe3\x05\x11'
p1401
tp1402
Rp1403
aF1558141430.767091
aF1558141471.259216
aa(lp1404
(g1017
(dp1405
g4
tp1406
a(g1017
(dp1407
g1021
(lp1408
sg1134
tp1409
a(g1032
(dp1410
g4
tp1411
a(g1032
(dp1412
g1021
(lp1413
sg1134
tp1414
a(g1141
(dp1415
g4
tp1416
a(g1141
(dp1417
g1021
(lp1418
sg1134
tp1419
a(g1032
(dp1420
g4
tp1421
a(g1032
(dp1422
g1021
(lp1423
sg1134
tp1424
a(g1141
(dp1425
g4
tp1426
a(g1141
(dp1427
g1021
(lp1428
sg1134
tp1429
a(g1032
(dp1430
g4
tp1431
a(g1032
(dp1432
g1021
(lp1433
sS'human_ready_general'
p1434
tp1435
a(g1039
(dp1436
g4
tp1437
a(g1039
(dp1438
g1021
(lp1439
sg1134
tp1440
a(g1141
(dp1441
g4
tp1442
a(g1141
(dp1443
g1021
(lp1444
sS'human_ready_goodbye'
p1445
tp1446
a(g1369
(dp1447
g4
tp1448
a(g1369
(dp1449
g1021
(lp1450
sS'human_ready_general'
p1451
tp1452
aNaI00
aI00
ag24
(S'\x07\xe3\x05\x11'
p1453
tp1454
Rp1455
aF1558141510.935073
aF1558141584.115757
aa(lp1456
(g1017
(dp1457
g4
tp1458
a(g1017
(dp1459
g1021
(lp1460
sS'human_ready_dance'
p1461
tp1462
a(g1025
(dp1463
g4
tp1464
a(g1025
(dp1465
g1021
(lp1466
sS'human_ready_general'
p1467
tp1468
a(g1032
(dp1469
g4
tp1470
a(g1032
(dp1471
g1021
(lp1472
sS'human_ready_general'
p1473
tp1474
a(g1039
(dp1475
g4
tp1476
a(g1039
(dp1477
g1021
(lp1478
sS'human_ready_eat'
p1479
tp1480
a(g1039
(dp1481
g4
tp1482
a(g1039
(dp1483
g1021
(lp1484
sS'human_ready_dance'
p1485
tp1486
a(g1025
(dp1487
g4
tp1488
a(g1025
(dp1489
g1021
(lp1490
sS'human_ready_general'
p1491
tp1492
a(g1032
(dp1493
g4
tp1494
a(g1032
(dp1495
g1021
(lp1496
sS'human_ready_sports'
p1497
tp1498
a(g1039
(dp1499
g4
tp1500
a(g1039
(dp1501
g1021
(lp1502
sS'human_ready_general'
p1503
tp1504
a(g1039
(dp1505
g4
tp1506
a(g1039
(dp1507
g1021
(lp1508
sS'human_ready_goodbye'
p1509
tp1510
a(g1369
(dp1511
g4
tp1512
a(g1369
(dp1513
g1021
(lp1514
sg1134
tp1515
aNaI00
aI00
ag24
(S'\x07\xe3\x05\x11'
p1516
tp1517
Rp1518
aF1558141599.562817
aF1558141797.383108
aa(lp1519
(VGreet
p1520
(dp1521
g4
tp1522
a(g1520
(dp1523
S'good-bad'
p1524
(lp1525
sS'human_ready_eat'
p1526
tp1527
a(VConversation
p1528
(dp1529
g4
tp1530
a(g1528
(dp1531
g1524
(lp1532
sS'human_ignore'
p1533
tp1534
a(VJoke
p1535
(dp1536
g4
tp1537
a(g1535
(dp1538
g1524
(lp1539
sg1533
tp1540
a(VHowHelp
p1541
(dp1542
g4
tp1543
a(g1541
(dp1544
g1524
(lp1545
sS'human_ready_dance'
p1546
tp1547
a(VDancing
p1548
(dp1549
g4
tp1550
a(g1548
(dp1551
g1524
(lp1552
sS'human_ready_general'
p1553
tp1554
a(g1541
(dp1555
g4
tp1556
a(g1541
(dp1557
g1524
(lp1558
sS'human_ready_weather'
p1559
tp1560
a(g1528
(dp1561
g4
tp1562
a(g1528
(dp1563
g1524
(lp1564
sS'human_ready_general'
p1565
tp1566
a(g1528
(dp1567
g4
tp1568
a(g1528
(dp1569
g1524
(lp1570
sS'human_ready_dance'
p1571
tp1572
a(g1548
(dp1573
g4
tp1574
a(g1548
(dp1575
g1524
(lp1576
sS'human_ready_general'
p1577
tp1578
a(g1541
(dp1579
g4
tp1580
a(g1541
(dp1581
g1524
(lp1582
sS'human_ready_general'
p1583
tp1584
a(g1528
(dp1585
g4
tp1586
a(g1528
(dp1587
g1524
(lp1588
sS'human_ready_eat'
p1589
tp1590
a(g1528
(dp1591
g4
tp1592
a(g1528
(dp1593
g1524
(lp1594
sg1533
tp1595
a(g1535
(dp1596
g4
tp1597
a(g1535
(dp1598
g1524
(lp1599
sS'human_ready_about'
p1600
tp1601
a(g1541
(dp1602
g4
tp1603
a(g1541
(dp1604
g1524
(lp1605
sS'human_ready_general'
p1606
tp1607
a(g1528
(dp1608
g4
tp1609
a(g1528
(dp1610
g1524
(lp1611
sg1533
tp1612
a(g1535
(dp1613
g4
tp1614
a(g1535
(dp1615
g1524
(lp1616
sg1533
tp1617
a(g1541
(dp1618
g4
tp1619
a(g1541
(dp1620
g1524
(lp1621
sg1533
tp1622
a(g1535
(dp1623
g4
tp1624
a(g1535
(dp1625
g1524
(lp1626
sS'human_ready_goodbye'
p1627
tp1628
a(VBye
p1629
(dp1630
g4
tp1631
a(g1629
(dp1632
g1524
(lp1633
sS'human_ready_general'
p1634
tp1635
aNaI00
aI00
ag24
(S'\x07\xe3\x05\x11'
p1636
tp1637
Rp1638
aF1558144289.879341
aF1558144567.615393
aa(lp1639
(VGreet
p1640
(dp1641
g4
tp1642
a(g1640
(dp1643
S'good-bad'
p1644
(lp1645
sS'human_ready_general'
p1646
tp1647
a(VHowHelp
p1648
(dp1649
g4
tp1650
a(g1648
(dp1651
g1644
(lp1652
sS'human_ready_general'
p1653
tp1654
a(VConversation
p1655
(dp1656
g4
tp1657
a(g1655
(dp1658
g1644
(lp1659
sS'human_ready_eat'
p1660
tp1661
a(g1655
(dp1662
g4
tp1663
a(g1655
(dp1664
g1644
(lp1665
sS'human_ignore'
p1666
tp1667
a(VJoke
p1668
(dp1669
g4
tp1670
a(g1668
(dp1671
g1644
(lp1672
sS'human_ready_general'
p1673
tp1674
a(g1648
(dp1675
g4
tp1676
a(g1648
(dp1677
g1644
(lp1678
sS'human_ready_goodbye'
p1679
tp1680
a(VBye
p1681
(dp1682
g4
tp1683
a(g1681
(dp1684
g1644
(lp1685
sg1666
tp1686
aNaI00
aI00
ag24
(S'\x07\xe3\x05\x15'
p1687
tp1688
Rp1689
aF1558465273.165723
aF1558465340.787078
aa(lp1690
(VGreet
p1691
(dp1692
g4
tp1693
a(g1691
(dp1694
S'good-bad'
p1695
(lp1696
sS'human_ready_hello'
p1697
tp1698
a(VHowHelp
p1699
(dp1700
g4
tp1701
a(g1699
(dp1702
g1695
(lp1703
sS'human_ready_goodbye'
p1704
tp1705
a(VBye
p1706
(dp1707
g4
tp1708
a(g1706
(dp1709
g1695
(lp1710
sS'human_ignore'
p1711
tp1712
aNaI00
aI00
ag24
(S'\x07\xe3\x06\x06'
p1713
tp1714
Rp1715
aF1559856623.004943
aF1559856641.588723
aa(lp1716
(VGreet
p1717
(dp1718
g4
tp1719
a(g1717
(dp1720
S'good-bad'
p1721
(lp1722
sS'human_ignore'
p1723
tp1724
a(VHowHelp
p1725
(dp1726
g4
tp1727
a(g1725
(dp1728
g1721
(lp1729
sS'human_ready_goodbye'
p1730
tp1731
a(VBye
p1732
(dp1733
g4
tp1734
a(g1732
(dp1735
g1721
(lp1736
sg1723
tp1737
aNaI00
aI00
ag24
(S'\x07\xe3\x06\x11'
p1738
tp1739
Rp1740
aF1560793619.497744
aF1560793640.461289
aa(lp1741
(VGreet
p1742
(dp1743
g4
tp1744
a(g1742
(dp1745
S'good-bad'
p1746
(lp1747
sS'human_ignore'
p1748
tp1749
a(VHowHelp
p1750
(dp1751
g4
tp1752
a(g1750
(dp1753
g1746
(lp1754
sg1748
tp1755
a(VJoke
p1756
(dp1757
g4
tp1758
a(g1756
(dp1759
g1746
(lp1760
sg1748
tp1761
a(g1750
(dp1762
g4
tp1763
a(g1750
(dp1764
g1746
(lp1765
sg1748
tp1766
a(g1756
(dp1767
g4
tp1768
a(g1756
(dp1769
g1746
(lp1770
sS'human_ready_eat'
p1771
tp1772
a(g1750
(dp1773
g4
tp1774
a(g1750
(dp1775
g1746
(lp1776
sS'human_ready_general'
p1777
tp1778
a(VConversation
p1779
(dp1780
g4
tp1781
a(g1779
(dp1782
g1746
(lp1783
sS'human_ready_goodbye'
p1784
tp1785
a(VBye
p1786
(dp1787
g4
tp1788
a(g1786
(dp1789
g1746
(lp1790
sg1748
tp1791
aNaI00
aI00
ag24
(S'\x07\xe3\x06\x11'
p1792
tp1793
Rp1794
aF1560793864.463884
aF1560793918.688107
aa.